target datalayout = "e-m:e-p270:32:32-p271:32:32-p272:64:64-i64:64-i128:128-f80:128-n8:16:32:64-S128"
target triple = "x86_64-unknown-linux-gnu"

%"class.facebook::jsi::RuntimeDecorator" = type { %"class.facebook::jsi::Runtime", %"class.facebook::jsi::Instrumentation", ptr }
%"class.facebook::jsi::Runtime" = type { ptr }
%"class.facebook::jsi::Instrumentation" = type { ptr }
%"class.facebook::jsi::Pointer" = type { ptr }
%"class.facebook::jsi::WeakObject" = type { %"class.facebook::jsi::Pointer" }

; Function Attrs: mustprogress uwtable
define linkonce_odr hidden void @_ZN8facebook3jsi16RuntimeDecoratorINS0_7RuntimeES2_E16createWeakObjectERKNS0_6ObjectE(ptr noalias sret(%"class.facebook::jsi::WeakObject") align 8 %agg.result, ptr noundef nonnull align 8 dereferenceable(24) %this, ptr noundef nonnull align 8 dereferenceable(8) %o) unnamed_addr #0 comdat align 2 {
entry:
  %result.ptr = alloca ptr, align 8
  %this.addr = alloca ptr, align 8
  %o.addr = alloca ptr, align 8
  store ptr %agg.result, ptr %result.ptr, align 8
  store ptr %this, ptr %this.addr, align 8
  store ptr %o, ptr %o.addr, align 8
  %this1 = load ptr, ptr %this.addr, align 8
  %plain_ = getelementptr inbounds %"class.facebook::jsi::RuntimeDecorator", ptr %this1, i32 0, i32 2
  %0 = load ptr, ptr %plain_, align 8
  %1 = load ptr, ptr %o.addr, align 8
  %vtable = load ptr, ptr %0, align 8
  %vfn = getelementptr inbounds ptr, ptr %vtable, i64 51
  %2 = load ptr, ptr %vfn, align 8
  call void %2(ptr sret(%"class.facebook::jsi::WeakObject") align 8 %agg.result, ptr noundef nonnull align 8 dereferenceable(8) %0, ptr noundef nonnull align 8 dereferenceable(8) %1)
  ret void
}

; Function Attrs: mustprogress uwtable
define hidden void @_ZN8facebook6hermes7tracing14TracingRuntime16createWeakObjectERKNS_3jsi6ObjectE(ptr noalias sret(%"class.facebook::jsi::WeakObject") align 8 %agg.result, ptr noundef nonnull align 8 dereferenceable(172) %this, ptr noundef nonnull align 8 dereferenceable(8) %o) unnamed_addr #0 align 2 {
entry:
  %result.ptr = alloca ptr, align 8
  %this.addr = alloca ptr, align 8
  %o.addr = alloca ptr, align 8
  store ptr %agg.result, ptr %result.ptr, align 8
  store ptr %this, ptr %this.addr, align 8
  store ptr %o, ptr %o.addr, align 8
  %this1 = load ptr, ptr %this.addr, align 8
  %0 = load ptr, ptr %o.addr, align 8
  call void @_ZN8facebook3jsi16RuntimeDecoratorINS0_7RuntimeES2_E16createWeakObjectERKNS0_6ObjectE(ptr sret(%"class.facebook::jsi::WeakObject") align 8 %agg.result, ptr noundef nonnull align 8 dereferenceable(24) %this1, ptr noundef nonnull align 8 dereferenceable(8) %0)
  ret void
}