; Function Attrs: mustprogress uwtable
define hidden void @_ZN8facebook6hermes7tracing14TracingRuntime16createWeakObjectERKNS_3jsi6ObjectE(ptr noalias sret(%"class.facebook::jsi::WeakObject") align 8 %agg.result, ptr nocapture noundef nonnull readonly align 8 dereferenceable(172) %this, ptr noundef nonnull align 8 dereferenceable(8) %o) unnamed_addr #0 align 2 {
entry:
  %plain_.i = getelementptr inbounds i8, ptr %this, i64 16
  %0 = load ptr, ptr %plain_.i, align 8, !noalias !223
  %vtable.i = load ptr, ptr %0, align 8, !noalias !223
  %vfn.i = getelementptr inbounds i8, ptr %vtable.i, i64 408
  %1 = load ptr, ptr %vfn.i, align 8, !noalias !223
  tail call void %1(ptr sret(%"class.facebook::jsi::WeakObject") align 8 %agg.result, ptr noundef nonnull align 8 dereferenceable(8) %0, ptr noundef nonnull align 8 dereferenceable(8) %o)
  ret void
}